target datalayout = "e-m:e-p270:32:32-p271:32:32-p272:64:64-i64:64-i128:128-f80:128-n8:16:32:64-S128"
target triple = "x86_64-pc-linux-gnu"

%struct.cli_bc_type = type { i32, ptr, i32, i32, i32 }

@cli_apicall_types = external constant [0 x %struct.cli_bc_type], align 8

; Function Attrs: nounwind uwtable
define internal i32 @globaltypesize(i16 noundef zeroext %0) #0 {
  %2 = alloca i32, align 4
  %3 = alloca i16, align 2
  %4 = alloca ptr, align 8
  %5 = alloca i32, align 4
  %6 = alloca i32, align 4
  store i16 %0, ptr %3, align 2
  %7 = load i16, ptr %3, align 2
  %8 = zext i16 %7 to i32
  %9 = icmp sle i32 %8, 64
  br i1 %9, label %10, label %15

10:                                               ; preds = %1
  %11 = load i16, ptr %3, align 2
  %12 = zext i16 %11 to i32
  %13 = add nsw i32 %12, 7
  %14 = sdiv i32 %13, 8
  store i32 %14, ptr %2, align 4
  br label %64

15:                                               ; preds = %1
  %16 = load i16, ptr %3, align 2
  %17 = zext i16 %16 to i32
  %18 = icmp slt i32 %17, 69
  br i1 %18, label %19, label %20

19:                                               ; preds = %15
  store i32 8, ptr %2, align 4
  br label %64

20:                                               ; preds = %15
  %21 = load i16, ptr %3, align 2
  %22 = zext i16 %21 to i32
  %23 = sub nsw i32 %22, 69
  %24 = sext i32 %23 to i64
  %25 = getelementptr inbounds [0 x %struct.cli_bc_type], ptr @cli_apicall_types, i64 0, i64 %24
  store ptr %25, ptr %4, align 8
  %26 = load ptr, ptr %4, align 8
  %27 = getelementptr inbounds %struct.cli_bc_type, ptr %26, i32 0, i32 0
  %28 = load i32, ptr %27, align 8
  switch i32 %28, label %63 [
    i32 4, label %29
    i32 2, label %40
    i32 3, label %40
  ]

29:                                               ; preds = %20
  %30 = load ptr, ptr %4, align 8
  %31 = getelementptr inbounds %struct.cli_bc_type, ptr %30, i32 0, i32 2
  %32 = load i32, ptr %31, align 8
  %33 = load ptr, ptr %4, align 8
  %34 = getelementptr inbounds %struct.cli_bc_type, ptr %33, i32 0, i32 1
  %35 = load ptr, ptr %34, align 8
  %36 = getelementptr inbounds i16, ptr %35, i64 0
  %37 = load i16, ptr %36, align 2
  %38 = call i32 @globaltypesize(i16 noundef zeroext %37)
  %39 = mul i32 %32, %38
  store i32 %39, ptr %2, align 4
  br label %64

40:                                               ; preds = %20, %20
  store i32 0, ptr %6, align 4
  store i32 0, ptr %5, align 4
  br label %41

41:                                               ; preds = %58, %40
  %42 = load i32, ptr %5, align 4
  %43 = load ptr, ptr %4, align 8
  %44 = getelementptr inbounds %struct.cli_bc_type, ptr %43, i32 0, i32 2
  %45 = load i32, ptr %44, align 8
  %46 = icmp ult i32 %42, %45
  br i1 %46, label %47, label %61

47:                                               ; preds = %41
  %48 = load ptr, ptr %4, align 8
  %49 = getelementptr inbounds %struct.cli_bc_type, ptr %48, i32 0, i32 1
  %50 = load ptr, ptr %49, align 8
  %51 = load i32, ptr %5, align 4
  %52 = zext i32 %51 to i64
  %53 = getelementptr inbounds i16, ptr %50, i64 %52
  %54 = load i16, ptr %53, align 2
  %55 = call i32 @globaltypesize(i16 noundef zeroext %54)
  %56 = load i32, ptr %6, align 4
  %57 = add i32 %56, %55
  store i32 %57, ptr %6, align 4
  br label %58

58:                                               ; preds = %47
  %59 = load i32, ptr %5, align 4
  %60 = add i32 %59, 1
  store i32 %60, ptr %5, align 4
  br label %41

61:                                               ; preds = %41
  %62 = load i32, ptr %6, align 4
  store i32 %62, ptr %2, align 4
  br label %64

63:                                               ; preds = %20
  store i32 0, ptr %2, align 4
  br label %64

64:                                               ; preds = %63, %61, %29, %19, %10
  %65 = load i32, ptr %2, align 4
  ret i32 %65
}