; Function Attrs: nofree nosync nounwind memory(read, inaccessiblemem: none) uwtable
define internal fastcc i32 @globaltypesize(i16 noundef zeroext %0) unnamed_addr #2 {
  %2 = zext i16 %0 to i32
  %3 = icmp ult i16 %0, 65
  br i1 %3, label %tailrecurse._crit_edge, label %.lr.ph

tailrecurse._crit_edge:                           ; preds = %tailrecurse, %1
  %accumulator.tr.lcssa = phi i32 [ 1, %1 ], [ %18, %tailrecurse ]
  %.lcssa = phi i32 [ %2, %1 ], [ %19, %tailrecurse ]
  %4 = add nuw nsw i32 %.lcssa, 7
  %5 = lshr i32 %4, 3
  br label %.loopexit

.lr.ph:                                           ; preds = %1, %tailrecurse
  %6 = phi i32 [ %19, %tailrecurse ], [ %2, %1 ]
  %.tr25 = phi i16 [ %17, %tailrecurse ], [ %0, %1 ]
  %accumulator.tr24 = phi i32 [ %18, %tailrecurse ], [ 1, %1 ]
  %7 = icmp ult i16 %.tr25, 69
  br i1 %7, label %.loopexit, label %8

8:                                                ; preds = %.lr.ph
  %9 = add nsw i32 %6, -69
  %10 = zext nneg i32 %9 to i64
  %11 = getelementptr inbounds [0 x %struct.cli_bc_type], ptr @cli_apicall_types, i64 0, i64 %10
  %12 = load i32, ptr %11, align 8
  switch i32 %12, label %.loopexit [
    i32 4, label %tailrecurse
    i32 2, label %21
    i32 3, label %21
  ]

tailrecurse:                                      ; preds = %8
  %13 = getelementptr inbounds i8, ptr %11, i64 16
  %14 = load i32, ptr %13, align 8
  %15 = getelementptr inbounds i8, ptr %11, i64 8
  %16 = load ptr, ptr %15, align 8
  %17 = load i16, ptr %16, align 2
  %18 = mul i32 %14, %accumulator.tr24
  %19 = zext i16 %17 to i32
  %20 = icmp ult i16 %17, 65
  br i1 %20, label %tailrecurse._crit_edge, label %.lr.ph

21:                                               ; preds = %8, %8
  %22 = getelementptr inbounds i8, ptr %11, i64 16
  %23 = load i32, ptr %22, align 8
  %.not = icmp eq i32 %23, 0
  br i1 %.not, label %.loopexit, label %.lr.ph29

.lr.ph29:                                         ; preds = %21
  %24 = getelementptr inbounds i8, ptr %11, i64 8
  %25 = load ptr, ptr %24, align 8
  %wide.trip.count = zext i32 %23 to i64
  br label %26

26:                                               ; preds = %.lr.ph29, %26
  %indvars.iv = phi i64 [ 0, %.lr.ph29 ], [ %indvars.iv.next, %26 ]
  %.028 = phi i32 [ 0, %.lr.ph29 ], [ %30, %26 ]
  %27 = getelementptr inbounds i16, ptr %25, i64 %indvars.iv
  %28 = load i16, ptr %27, align 2
  %29 = tail call fastcc i32 @globaltypesize(i16 noundef zeroext %28)
  %30 = add i32 %29, %.028
  %indvars.iv.next = add nuw nsw i64 %indvars.iv, 1
  %exitcond.not = icmp eq i64 %indvars.iv.next, %wide.trip.count
  br i1 %exitcond.not, label %.loopexit, label %26

.loopexit:                                        ; preds = %8, %.lr.ph, %26, %21, %tailrecurse._crit_edge
  %accumulator.tr22 = phi i32 [ %accumulator.tr.lcssa, %tailrecurse._crit_edge ], [ %accumulator.tr24, %21 ], [ %accumulator.tr24, %26 ], [ %accumulator.tr24, %.lr.ph ], [ %accumulator.tr24, %8 ]
  %.015 = phi i32 [ %5, %tailrecurse._crit_edge ], [ 0, %21 ], [ %30, %26 ], [ 0, %8 ], [ 8, %.lr.ph ]
  %accumulator.ret.tr = mul i32 %.015, %accumulator.tr22
  ret i32 %accumulator.ret.tr
}